; Function Attrs: mustprogress nounwind uwtable
define void @_ZN16WirelessTimelineD2Ev(ptr noundef nonnull align 8 dereferenceable(896) %0) unnamed_addr #9 align 2 personality ptr @__gxx_personality_v0 {
  store ptr getelementptr inbounds ({ [54 x ptr], [10 x ptr] }, ptr @_ZTV16WirelessTimeline, i64 0, i32 0, i64 2), ptr %0, align 8
  %2 = getelementptr inbounds i8, ptr %0, i64 16
  store ptr getelementptr inbounds ({ [54 x ptr], [10 x ptr] }, ptr @_ZTV16WirelessTimeline, i64 0, i32 1, i64 2), ptr %2, align 8
  %3 = getelementptr inbounds i8, ptr %0, i64 888
  %4 = load ptr, ptr %3, align 8
  %.not = icmp eq ptr %4, null
  br i1 %.not, label %6, label %5

5:                                                ; preds = %1
  invoke void @g_hash_table_destroy(ptr noundef nonnull %4)
          to label %6 unwind label %7

6:                                                ; preds = %5, %1
  tail call void @_ZN7QWidgetD2Ev(ptr noundef nonnull align 8 dereferenceable(40) %0) #18
  ret void

7:                                                ; preds = %5
  %8 = landingpad { ptr, i32 }
          catch ptr null
  %9 = extractvalue { ptr, i32 } %8, 0
  tail call void @__clang_call_terminate(ptr %9) #20
  unreachable
}